target datalayout = "e-m:e-p270:32:32-p271:32:32-p272:64:64-i64:64-i128:128-f80:128-n8:16:32:64-S128"
target triple = "x86_64-pc-linux-gnu"

%"class.cvc5::internal::theory::arith::linear::RaiseConflict" = type { ptr }
%"class.cvc5::internal::theory::arith::linear::TempVarMalloc" = type { %"class.cvc5::internal::theory::arith::linear::ArithVarMalloc", ptr }
%"class.cvc5::internal::theory::arith::linear::ArithVarMalloc" = type { ptr }
%"class.cvc5::internal::theory::arith::linear::AttemptSolutionSDP" = type { %"class.cvc5::internal::theory::arith::linear::SimplexDecisionProcedure", %"class.cvc5::internal::theory::arith::linear::AttemptSolutionSDP::Statistics" }
%"class.cvc5::internal::theory::arith::linear::SimplexDecisionProcedure" = type { %"class.cvc5::internal::EnvObj", i32, %"class.cvc5::internal::DenseSet", i32, ptr, ptr, ptr, ptr, i32, %"class.cvc5::internal::theory::arith::linear::RaiseConflict", ptr, %"class.cvc5::internal::theory::arith::linear::TempVarMalloc", i32, %"class.cvc5::internal::Rational", %"class.cvc5::internal::Rational", %"class.cvc5::internal::Rational", i64 }
%"class.cvc5::internal::EnvObj" = type { ptr, ptr }
%"class.cvc5::internal::DenseSet" = type { %"class.cvc5::internal::DenseMap" }
%"class.cvc5::internal::DenseMap" = type { %"class.std::vector", %"class.std::vector", %"class.std::vector.0" }
%"class.std::vector" = type { %"struct.std::_Vector_base" }
%"struct.std::_Vector_base" = type { %"struct.std::_Vector_base<unsigned int, std::allocator<unsigned int>>::_Vector_impl" }
%"struct.std::_Vector_base<unsigned int, std::allocator<unsigned int>>::_Vector_impl" = type { %"struct.std::_Vector_base<unsigned int, std::allocator<unsigned int>>::_Vector_impl_data" }
%"struct.std::_Vector_base<unsigned int, std::allocator<unsigned int>>::_Vector_impl_data" = type { ptr, ptr, ptr }
%"class.std::vector.0" = type { %"struct.std::_Bvector_base" }
%"struct.std::_Bvector_base" = type { %"struct.std::_Bvector_base<std::allocator<bool>>::_Bvector_impl" }
%"struct.std::_Bvector_base<std::allocator<bool>>::_Bvector_impl" = type { %"struct.std::_Bvector_base<std::allocator<bool>>::_Bvector_impl_data" }
%"struct.std::_Bvector_base<std::allocator<bool>>::_Bvector_impl_data" = type { %"struct.std::_Bit_iterator", %"struct.std::_Bit_iterator", ptr }
%"struct.std::_Bit_iterator" = type { %"struct.std::_Bit_iterator_base.base", [4 x i8] }
%"struct.std::_Bit_iterator_base.base" = type <{ ptr, i32 }>
%"class.cvc5::internal::Rational" = type { %class.__gmp_expr }
%class.__gmp_expr = type { [1 x %struct.__mpq_struct] }
%struct.__mpq_struct = type { %struct.__mpz_struct, %struct.__mpz_struct }
%struct.__mpz_struct = type { i32, i32, ptr }
%"class.cvc5::internal::theory::arith::linear::AttemptSolutionSDP::Statistics" = type { %"class.cvc5::internal::TimerStat", %"class.cvc5::internal::TimerStat", %"class.cvc5::internal::IntStat" }
%"class.cvc5::internal::TimerStat" = type { ptr }
%"class.cvc5::internal::IntStat" = type { %"class.cvc5::internal::ValueStat" }
%"class.cvc5::internal::ValueStat" = type { ptr }

@_ZTVN4cvc58internal6theory5arith6linear13TempVarMallocE = external unnamed_addr constant { [6 x ptr] }, align 8
@_ZN4cvc58internal6theory5arith6linear18AttemptSolutionSDP10StatisticsC1ERNS0_18StatisticsRegistryE = hidden unnamed_addr alias void (ptr, ptr), ptr @_ZN4cvc58internal6theory5arith6linear18AttemptSolutionSDP10StatisticsC2ERNS0_18StatisticsRegistryE

; Function Attrs: inlinehint mustprogress nounwind uwtable
define linkonce_odr hidden void @_ZN4cvc58internal6theory5arith6linear14ArithVarMallocC2ERKS4_(ptr noundef nonnull align 8 dereferenceable(8) %0, ptr noundef nonnull align 8 dereferenceable(8) %1) unnamed_addr #6 comdat align 2 {
  %3 = alloca ptr, align 8
  %4 = alloca ptr, align 8
  store ptr %0, ptr %3, align 8, !tbaa !24
  store ptr %1, ptr %4, align 8, !tbaa !24
  %5 = load ptr, ptr %3, align 8
  store ptr getelementptr inbounds inrange(-16, 32) ({ [6 x ptr] }, ptr @_ZTVN4cvc58internal6theory5arith6linear14ArithVarMallocE, i32 0, i32 0, i32 2), ptr %5, align 8, !tbaa !19
  ret void
}

; Function Attrs: mustprogress nounwind uwtable
define linkonce_odr hidden void @_ZN4cvc58internal6theory5arith6linear14ArithVarMallocD2Ev(ptr noundef nonnull align 8 dereferenceable(8) %0) unnamed_addr #7 comdat align 2 {
  %2 = alloca ptr, align 8
  store ptr %0, ptr %2, align 8, !tbaa !24
  ret void
}

; Function Attrs: inlinehint mustprogress nounwind uwtable
define linkonce_odr hidden void @_ZN4cvc58internal6theory5arith6linear13TempVarMallocC2ERKS4_(ptr noundef nonnull align 8 dereferenceable(16) %0, ptr noundef nonnull align 8 dereferenceable(16) %1) unnamed_addr #6 comdat align 2 {
  %3 = alloca ptr, align 8
  %4 = alloca ptr, align 8
  store ptr %0, ptr %3, align 8, !tbaa !14
  store ptr %1, ptr %4, align 8, !tbaa !14
  %5 = load ptr, ptr %3, align 8
  %6 = load ptr, ptr %4, align 8, !tbaa !14
  call void @_ZN4cvc58internal6theory5arith6linear14ArithVarMallocC2ERKS4_(ptr noundef nonnull align 8 dereferenceable(8) %5, ptr noundef nonnull align 8 dereferenceable(8) %6) #3
  store ptr getelementptr inbounds inrange(-16, 32) ({ [6 x ptr] }, ptr @_ZTVN4cvc58internal6theory5arith6linear13TempVarMallocE, i32 0, i32 0, i32 2), ptr %5, align 8, !tbaa !19
  %7 = getelementptr inbounds nuw %"class.cvc5::internal::theory::arith::linear::TempVarMalloc", ptr %5, i32 0, i32 1
  %8 = load ptr, ptr %4, align 8, !tbaa !14
  %9 = getelementptr inbounds nuw %"class.cvc5::internal::theory::arith::linear::TempVarMalloc", ptr %8, i32 0, i32 1
  %10 = load ptr, ptr %9, align 8, !tbaa !21
  store ptr %10, ptr %7, align 8, !tbaa !17
  ret void
}

; Function Attrs: mustprogress uwtable
define hidden void @_ZN4cvc58internal6theory5arith6linear18AttemptSolutionSDPC2ERNS0_3EnvERNS3_20LinearEqualityModuleERNS3_8ErrorSetENS3_13RaiseConflictENS3_13TempVarMallocE(ptr noundef nonnull align 8 dereferenceable(328) %0, ptr noundef nonnull align 1 %1, ptr noundef nonnull align 8 dereferenceable(456) %2, ptr noundef nonnull align 8 dereferenceable(240) %3, ptr %4, ptr noundef %5) unnamed_addr #4 align 2 personality ptr @__gxx_personality_v0 {
  %7 = alloca %"class.cvc5::internal::theory::arith::linear::RaiseConflict", align 8
  %8 = alloca ptr, align 8
  %9 = alloca ptr, align 8
  %10 = alloca ptr, align 8
  %11 = alloca ptr, align 8
  %12 = alloca ptr, align 8
  %13 = alloca %"class.cvc5::internal::theory::arith::linear::RaiseConflict", align 8
  %14 = alloca %"class.cvc5::internal::theory::arith::linear::TempVarMalloc", align 8
  %15 = alloca ptr, align 8
  %16 = alloca i32, align 4
  %17 = getelementptr inbounds nuw %"class.cvc5::internal::theory::arith::linear::RaiseConflict", ptr %7, i32 0, i32 0
  store ptr %4, ptr %17, align 8
  store ptr %0, ptr %8, align 8, !tbaa !3
  store ptr %1, ptr %9, align 8, !tbaa !8
  store ptr %2, ptr %10, align 8, !tbaa !10
  store ptr %3, ptr %11, align 8, !tbaa !12
  store ptr %5, ptr %12, align 8, !tbaa !14
  %18 = load ptr, ptr %8, align 8
  %19 = load ptr, ptr %9, align 8, !tbaa !8
  %20 = load ptr, ptr %10, align 8, !tbaa !10
  %21 = load ptr, ptr %11, align 8, !tbaa !12
  call void @llvm.memcpy.p0.p0.i64(ptr align 8 %13, ptr align 8 %7, i64 8, i1 false), !tbaa.struct !16
  call void @_ZN4cvc58internal6theory5arith6linear13TempVarMallocC2ERKS4_(ptr noundef nonnull align 8 dereferenceable(16) %14, ptr noundef nonnull align 8 dereferenceable(16) %5) #3
  %22 = getelementptr inbounds nuw %"class.cvc5::internal::theory::arith::linear::RaiseConflict", ptr %13, i32 0, i32 0
  %23 = load ptr, ptr %22, align 8
  invoke void @_ZN4cvc58internal6theory5arith6linear24SimplexDecisionProcedureC2ERNS0_3EnvERNS3_20LinearEqualityModuleERNS3_8ErrorSetENS3_13RaiseConflictENS3_13TempVarMallocE(ptr noundef nonnull align 8 dereferenceable(304) %18, ptr noundef nonnull align 1 %19, ptr noundef nonnull align 8 dereferenceable(456) %20, ptr noundef nonnull align 8 dereferenceable(240) %21, ptr %23, ptr noundef %14)
          to label %24 unwind label %29

24:                                               ; preds = %6
  call void @_ZN4cvc58internal6theory5arith6linear14ArithVarMallocD2Ev(ptr noundef nonnull align 8 dereferenceable(16) %14) #3
  store ptr getelementptr inbounds inrange(-16, 24) ({ [5 x ptr] }, ptr @_ZTVN4cvc58internal6theory5arith6linear18AttemptSolutionSDPE, i32 0, i32 0, i32 2), ptr %18, align 8, !tbaa !19
  %25 = getelementptr inbounds nuw %"class.cvc5::internal::theory::arith::linear::AttemptSolutionSDP", ptr %18, i32 0, i32 1
  %26 = invoke noundef nonnull align 8 dereferenceable(58) ptr @_ZNK4cvc58internal6EnvObj18statisticsRegistryEv(ptr noundef nonnull align 8 dereferenceable(16) %18)
          to label %27 unwind label %33

27:                                               ; preds = %24
  invoke void @_ZN4cvc58internal6theory5arith6linear18AttemptSolutionSDP10StatisticsC1ERNS0_18StatisticsRegistryE(ptr noundef nonnull align 8 dereferenceable(24) %25, ptr noundef nonnull align 8 dereferenceable(58) %26)
          to label %28 unwind label %33

28:                                               ; preds = %27
  ret void

29:                                               ; preds = %6
  %30 = landingpad { ptr, i32 }
          cleanup
  %31 = extractvalue { ptr, i32 } %30, 0
  store ptr %31, ptr %15, align 8
  %32 = extractvalue { ptr, i32 } %30, 1
  store i32 %32, ptr %16, align 4
  call void @_ZN4cvc58internal6theory5arith6linear14ArithVarMallocD2Ev(ptr noundef nonnull align 8 dereferenceable(16) %14) #3
  br label %37

33:                                               ; preds = %27, %24
  %34 = landingpad { ptr, i32 }
          cleanup
  %35 = extractvalue { ptr, i32 } %34, 0
  store ptr %35, ptr %15, align 8
  %36 = extractvalue { ptr, i32 } %34, 1
  store i32 %36, ptr %16, align 4
  call void @_ZN4cvc58internal6theory5arith6linear24SimplexDecisionProcedureD2Ev(ptr noundef nonnull align 8 dereferenceable(304) %18) #3
  br label %37

37:                                               ; preds = %33, %29
  %38 = load ptr, ptr %15, align 8
  %39 = load i32, ptr %16, align 4
  %40 = insertvalue { ptr, i32 } poison, ptr %38, 0
  %41 = insertvalue { ptr, i32 } %40, i32 %39, 1
  resume { ptr, i32 } %41
}