; Function Attrs: mustprogress uwtable
define hidden void @_ZN4cvc58internal6theory5arith6linear18AttemptSolutionSDPC2ERNS0_3EnvERNS3_20LinearEqualityModuleERNS3_8ErrorSetENS3_13RaiseConflictENS3_13TempVarMallocE(ptr noundef nonnull align 8 dereferenceable(328) %0, ptr noundef nonnull align 1 %1, ptr noundef nonnull align 8 dereferenceable(456) %2, ptr noundef nonnull align 8 dereferenceable(240) %3, ptr %4, ptr noundef readonly captures(none) %5) unnamed_addr #3 align 2 personality ptr @__gxx_personality_v0 {
  %7 = alloca %"class.cvc5::internal::theory::arith::linear::TempVarMalloc", align 8
  store ptr getelementptr inbounds nuw inrange(-16, 32) (i8, ptr @_ZTVN4cvc58internal6theory5arith6linear13TempVarMallocE, i64 16), ptr %7, align 8, !tbaa !3
  %8 = getelementptr inbounds nuw i8, ptr %7, i64 8
  %9 = getelementptr inbounds nuw i8, ptr %5, i64 8
  %10 = load ptr, ptr %9, align 8, !tbaa !6
  store ptr %10, ptr %8, align 8, !tbaa !12
  call void @_ZN4cvc58internal6theory5arith6linear24SimplexDecisionProcedureC2ERNS0_3EnvERNS3_20LinearEqualityModuleERNS3_8ErrorSetENS3_13RaiseConflictENS3_13TempVarMallocE(ptr noundef nonnull align 8 dereferenceable(304) %0, ptr noundef nonnull align 1 %1, ptr noundef nonnull align 8 dereferenceable(456) %2, ptr noundef nonnull align 8 dereferenceable(240) %3, ptr %4, ptr noundef nonnull %7)
  store ptr getelementptr inbounds nuw inrange(-16, 24) (i8, ptr @_ZTVN4cvc58internal6theory5arith6linear18AttemptSolutionSDPE, i64 16), ptr %0, align 8, !tbaa !3
  %11 = invoke noundef nonnull align 8 dereferenceable(58) ptr @_ZNK4cvc58internal6EnvObj18statisticsRegistryEv(ptr noundef nonnull align 8 dereferenceable(16) %0)
          to label %12 unwind label %15

12:                                               ; preds = %6
  %13 = getelementptr inbounds nuw i8, ptr %0, i64 304
  invoke void @_ZN4cvc58internal6theory5arith6linear18AttemptSolutionSDP10StatisticsC2ERNS0_18StatisticsRegistryE(ptr noundef nonnull align 8 dereferenceable(24) %13, ptr noundef nonnull align 8 dereferenceable(58) %11)
          to label %14 unwind label %15

14:                                               ; preds = %12
  ret void

15:                                               ; preds = %12, %6
  %16 = landingpad { ptr, i32 }
          cleanup
  call void @_ZN4cvc58internal6theory5arith6linear24SimplexDecisionProcedureD2Ev(ptr noundef nonnull align 8 dereferenceable(304) %0) #20
  resume { ptr, i32 } %16
}